; Function Attrs: nounwind uwtable
define noalias noundef ptr @Nwk_ManDfs(ptr noundef %0) local_unnamed_addr #0 {
  tail call void @Nwk_ManIncrementTravId(ptr noundef %0) #9
  %2 = tail call noalias dereferenceable_or_null(16) ptr @malloc(i64 noundef 16) #10
  %3 = getelementptr inbounds nuw i8, ptr %2, i64 4
  store i32 0, ptr %3, align 4
  store i32 100, ptr %2, align 8
  %4 = tail call noalias dereferenceable_or_null(800) ptr @malloc(i64 noundef 800) #10
  %5 = getelementptr inbounds nuw i8, ptr %2, i64 8
  store ptr %4, ptr %5, align 8
  %6 = getelementptr inbounds nuw i8, ptr %0, i64 32
  %7 = load ptr, ptr %6, align 8
  %8 = getelementptr i8, ptr %7, i64 4
  %.val20 = load i32, ptr %8, align 4
  %9 = icmp sgt i32 %.val20, 0
  br i1 %9, label %.lr.ph, label %.critedge

.lr.ph:                                           ; preds = %1, %51
  %indvars.iv = phi i64 [ %indvars.iv.next, %51 ], [ 0, %1 ]
  %10 = phi ptr [ %52, %51 ], [ %7, %1 ]
  %11 = getelementptr i8, ptr %10, i64 8
  %.val16 = load ptr, ptr %11, align 8
  %12 = getelementptr inbounds nuw ptr, ptr %.val16, i64 %indvars.iv
  %13 = load ptr, ptr %12, align 8
  %14 = icmp eq ptr %13, null
  br i1 %14, label %51, label %15

15:                                               ; preds = %.lr.ph
  %16 = getelementptr i8, ptr %13, i64 32
  %.val18 = load i32, ptr %16, align 8
  %17 = and i32 %.val18, 7
  switch i32 %17, label %51 [
    i32 1, label %18
    i32 2, label %50
  ]

18:                                               ; preds = %15
  %19 = load ptr, ptr %13, align 8
  %20 = getelementptr inbounds nuw i8, ptr %19, i64 104
  %21 = load i32, ptr %20, align 8
  %22 = getelementptr inbounds nuw i8, ptr %13, i64 40
  store i32 %21, ptr %22, align 8
  %23 = load i32, ptr %3, align 4
  %24 = load i32, ptr %2, align 8
  %25 = icmp eq i32 %23, %24
  br i1 %25, label %26, label %.Vec_PtrGrow.exit11_crit_edge.i

.Vec_PtrGrow.exit11_crit_edge.i:                  ; preds = %18
  %.pre.i = load ptr, ptr %5, align 8
  br label %Vec_PtrPush.exit

26:                                               ; preds = %18
  %27 = icmp slt i32 %23, 16
  br i1 %27, label %28, label %35

28:                                               ; preds = %26
  %29 = load ptr, ptr %5, align 8
  %.not9.i.i = icmp eq ptr %29, null
  br i1 %.not9.i.i, label %32, label %30

30:                                               ; preds = %28
  %31 = tail call dereferenceable_or_null(128) ptr @realloc(ptr noundef nonnull %29, i64 noundef 128) #11
  br label %Vec_PtrGrow.exit.i

32:                                               ; preds = %28
  %33 = tail call noalias dereferenceable_or_null(128) ptr @malloc(i64 noundef 128) #10
  br label %Vec_PtrGrow.exit.i

Vec_PtrGrow.exit.i:                               ; preds = %32, %30
  %34 = phi ptr [ %31, %30 ], [ %33, %32 ]
  store ptr %34, ptr %5, align 8
  store i32 16, ptr %2, align 8
  br label %Vec_PtrPush.exit

35:                                               ; preds = %26
  %36 = shl nuw nsw i32 %23, 1
  %37 = load ptr, ptr %5, align 8
  %.not9.i10.i = icmp eq ptr %37, null
  %38 = zext nneg i32 %36 to i64
  %39 = shl nuw nsw i64 %38, 3
  br i1 %.not9.i10.i, label %42, label %40

40:                                               ; preds = %35
  %41 = tail call ptr @realloc(ptr noundef nonnull %37, i64 noundef %39) #11
  br label %44

42:                                               ; preds = %35
  %43 = tail call noalias ptr @malloc(i64 noundef %39) #10
  br label %44

44:                                               ; preds = %42, %40
  %45 = phi ptr [ %41, %40 ], [ %43, %42 ]
  store ptr %45, ptr %5, align 8
  store i32 %36, ptr %2, align 8
  br label %Vec_PtrPush.exit

Vec_PtrPush.exit:                                 ; preds = %.Vec_PtrGrow.exit11_crit_edge.i, %Vec_PtrGrow.exit.i, %44
  %46 = phi ptr [ %.pre.i, %.Vec_PtrGrow.exit11_crit_edge.i ], [ %45, %44 ], [ %34, %Vec_PtrGrow.exit.i ]
  %47 = add nsw i32 %23, 1
  store i32 %47, ptr %3, align 4
  %48 = sext i32 %23 to i64
  %49 = getelementptr inbounds ptr, ptr %46, i64 %48
  store ptr %13, ptr %49, align 8
  br label %51

50:                                               ; preds = %15
  tail call void @Nwk_ManDfs_rec(ptr noundef nonnull %13, ptr noundef nonnull %2)
  br label %51

51:                                               ; preds = %15, %.lr.ph, %50, %Vec_PtrPush.exit
  %indvars.iv.next = add nuw nsw i64 %indvars.iv, 1
  %52 = load ptr, ptr %6, align 8
  %53 = getelementptr i8, ptr %52, i64 4
  %.val = load i32, ptr %53, align 4
  %54 = sext i32 %.val to i64
  %55 = icmp slt i64 %indvars.iv.next, %54
  br i1 %55, label %.lr.ph, label %.critedge, !llvm.loop !21

.critedge:                                        ; preds = %51, %1
  ret ptr %2
}